; ModuleID = '45/1522.c'
source_filename = "45/1522.c"
target datalayout = "e-m:e-p270:32:32-p271:32:32-p272:64:64-i64:64-f80:128-n8:16:32:64-S128"
target triple = "x86_64-pc-linux-gnu"

@.str = private unnamed_addr constant [5 x i8] c"%s%s\00", align 1
@.str.1 = private unnamed_addr constant [4 x i8] c"%d\0A\00", align 1

; Function Attrs: noinline nounwind uwtable
define dso_local i32 @main() #0 {
  %1 = alloca i32, align 4
  %2 = alloca i32, align 4
  %3 = alloca i32, align 4
  %4 = alloca i32, align 4
  %5 = alloca [50 x i8], align 16
  %6 = alloca [50 x i8], align 16
  store i32 0, i32* %1, align 4
  %7 = call i32 (i8*, ...) @__isoc99_scanf(i8* getelementptr inbounds ([5 x i8], [5 x i8]* @.str, i64 0, i64 0), [50 x i8]* %5, [50 x i8]* %6)
  store i32 0, i32* %2, align 4
  br label %8

8:                                                ; preds = %56, %0
  %9 = load i32, i32* %2, align 4
  %10 = sext i32 %9 to i64
  %11 = getelementptr inbounds [50 x i8], [50 x i8]* %6, i64 0, i64 0
  %12 = call i64 @strlen(i8* %11) #3
  %13 = getelementptr inbounds [50 x i8], [50 x i8]* %5, i64 0, i64 0
  %14 = call i64 @strlen(i8* %13) #3
  %15 = sub i64 %12, %14
  %16 = add i64 %15, 1
  %17 = icmp ult i64 %10, %16
  br i1 %17, label %18, label %59

18:                                               ; preds = %8
  store i32 0, i32* %4, align 4
  store i32 0, i32* %3, align 4
  br label %19

19:                                               ; preds = %43, %18
  %20 = load i32, i32* %3, align 4
  %21 = sext i32 %20 to i64
  %22 = getelementptr inbounds [50 x i8], [50 x i8]* %5, i64 0, i64 0
  %23 = call i64 @strlen(i8* %22) #3
  %24 = icmp ult i64 %21, %23
  br i1 %24, label %25, label %46

25:                                               ; preds = %19
  %26 = load i32, i32* %2, align 4
  %27 = load i32, i32* %3, align 4
  %28 = add nsw i32 %26, %27
  %29 = sext i32 %28 to i64
  %30 = getelementptr inbounds [50 x i8], [50 x i8]* %6, i64 0, i64 %29
  %31 = load i8, i8* %30, align 1
  %32 = sext i8 %31 to i32
  %33 = load i32, i32* %3, align 4
  %34 = sext i32 %33 to i64
  %35 = getelementptr inbounds [50 x i8], [50 x i8]* %5, i64 0, i64 %34
  %36 = load i8, i8* %35, align 1
  %37 = sext i8 %36 to i32
  %38 = icmp eq i32 %32, %37
  br i1 %38, label %39, label %42

39:                                               ; preds = %25
  %40 = load i32, i32* %4, align 4
  %41 = add nsw i32 %40, 1
  store i32 %41, i32* %4, align 4
  br label %42

42:                                               ; preds = %39, %25
  br label %43

43:                                               ; preds = %42
  %44 = load i32, i32* %3, align 4
  %45 = add nsw i32 %44, 1
  store i32 %45, i32* %3, align 4
  br label %19

46:                                               ; preds = %19
  %47 = load i32, i32* %4, align 4
  %48 = sext i32 %47 to i64
  %49 = getelementptr inbounds [50 x i8], [50 x i8]* %5, i64 0, i64 0
  %50 = call i64 @strlen(i8* %49) #3
  %51 = icmp eq i64 %48, %50
  br i1 %51, label %52, label %55

52:                                               ; preds = %46
  %53 = load i32, i32* %2, align 4
  %54 = call i32 (i8*, ...) @printf(i8* getelementptr inbounds ([4 x i8], [4 x i8]* @.str.1, i64 0, i64 0), i32 %53)
  br label %59

55:                                               ; preds = %46
  br label %56

56:                                               ; preds = %55
  %57 = load i32, i32* %2, align 4
  %58 = add nsw i32 %57, 1
  store i32 %58, i32* %2, align 4
  br label %8

59:                                               ; preds = %52, %8
  ret i32 0
}

declare dso_local i32 @__isoc99_scanf(i8*, ...) #1

; Function Attrs: nounwind readonly
declare dso_local i64 @strlen(i8*) #2

declare dso_local i32 @printf(i8*, ...) #1


!llvm.module.flags = !{!0}
!llvm.ident = !{!1}

!0 = !{i32 1, !"wchar_size", i32 4}
!1 = !{!"clang version 10.0.0-4ubuntu1 "}
